; Function Attrs: null_pointer_is_valid sspstrong uwtable
define hidden noundef ptr @base64_to_tvb(ptr noundef %0, ptr noundef %1) local_unnamed_addr #0 {
  %3 = alloca i64, align 8
  call void @llvm.lifetime.start.p0(i64 8, ptr nonnull %3) #5
  %4 = call noalias ptr @g_base64_decode(ptr noundef %1, ptr noundef nonnull %3)
  %5 = load i64, ptr %3, align 8
  %6 = trunc i64 %5 to i32
  %7 = call ptr @tvb_new_child_real_data(ptr noundef %0, ptr noundef %4, i32 noundef %6, i32 noundef %6)
  call void @tvb_set_free_cb(ptr noundef %7, ptr noundef nonnull @g_free)
  call void @llvm.lifetime.end.p0(i64 8, ptr nonnull %3) #5
  ret ptr %7
}